; Function Attrs: mustprogress nounwind uwtable
define hidden noundef zeroext i1 @_ZN14HandshakeState34have_non_self_executable_operationEv(ptr noundef nonnull align 8 dereferenceable(131) %0) local_unnamed_addr #0 align 2 {
  %2 = getelementptr inbounds i8, ptr %0, i64 8
  %3 = load volatile ptr, ptr %2, align 8
  tail call void asm sideeffect "", "~{memory},~{dirflag},~{fpsr},~{flags}"() #11, !srcloc !6
  %4 = icmp eq ptr %3, null
  br i1 %4, label %_ZN11FilterQueueIP18HandshakeOperationE8containsIFbS1_EEEbRT_.exit, label %.preheader.i

.preheader.i:                                     ; preds = %1, %13
  %.0.i = phi ptr [ %14, %13 ], [ %3, %1 ]
  %5 = getelementptr inbounds i8, ptr %.0.i, i64 8
  %6 = load ptr, ptr %5, align 8
  %7 = getelementptr inbounds i8, ptr %6, i64 8
  %8 = load ptr, ptr %7, align 8
  %9 = load ptr, ptr %8, align 8
  %10 = getelementptr inbounds i8, ptr %9, i64 24
  %11 = load ptr, ptr %10, align 8
  %12 = tail call noundef zeroext i1 %11(ptr noundef nonnull align 8 dereferenceable(16) %8) #11
  br i1 %12, label %13, label %_ZN11FilterQueueIP18HandshakeOperationE8containsIFbS1_EEEbRT_.exit.loopexit

13:                                               ; preds = %.preheader.i
  %14 = load ptr, ptr %.0.i, align 8
  %.not.i = icmp eq ptr %14, null
  br i1 %.not.i, label %_ZN11FilterQueueIP18HandshakeOperationE8containsIFbS1_EEEbRT_.exit.loopexit, label %.preheader.i, !llvm.loop !12

_ZN11FilterQueueIP18HandshakeOperationE8containsIFbS1_EEEbRT_.exit.loopexit: ; preds = %13, %.preheader.i
  %.07.i.ph = xor i1 %12, true
  br label %_ZN11FilterQueueIP18HandshakeOperationE8containsIFbS1_EEEbRT_.exit

_ZN11FilterQueueIP18HandshakeOperationE8containsIFbS1_EEEbRT_.exit: ; preds = %_ZN11FilterQueueIP18HandshakeOperationE8containsIFbS1_EEEbRT_.exit.loopexit, %1
  %.07.i = phi i1 [ false, %1 ], [ %.07.i.ph, %_ZN11FilterQueueIP18HandshakeOperationE8containsIFbS1_EEEbRT_.exit.loopexit ]
  ret i1 %.07.i
}